target datalayout = "e-m:e-p270:32:32-p271:32:32-p272:64:64-i64:64-i128:128-f80:128-n8:16:32:64-S128"
target triple = "x86_64-pc-linux-gnu"

%struct.LocVar = type { ptr, i32, i32, i8 }
%struct.TString = type { i8, i8, i8, i16, ptr, i32, i32, [1 x i8] }
%struct.Proto = type { i8, i8, i8, i8, i8, i8, i8, i8, ptr, ptr, ptr, ptr, ptr, i64, ptr, ptr, ptr, ptr, ptr, ptr, ptr, ptr, ptr, ptr, i32, i32, i32, i32, i32, i32, i32, i32, i32, i32 }

; Function Attrs: mustprogress nounwind uwtable
define internal noundef ptr @_ZN4Luau7CodeGenL12tryFindLocalEPK5Protoii(ptr noundef %0, i32 noundef %1, i32 noundef %2) #1 {
  %4 = alloca ptr, align 8
  %5 = alloca ptr, align 8
  %6 = alloca i32, align 4
  %7 = alloca i32, align 4
  %8 = alloca i32, align 4
  %9 = alloca ptr, align 8
  store ptr %0, ptr %5, align 8
  store i32 %1, ptr %6, align 4
  store i32 %2, ptr %7, align 4
  store i32 0, ptr %8, align 4
  br label %10

10:                                               ; preds = %44, %3
  %11 = load i32, ptr %8, align 4
  %12 = load ptr, ptr %5, align 8
  %13 = getelementptr inbounds %struct.Proto, ptr %12, i32 0, i32 26
  %14 = load i32, ptr %13, align 8
  %15 = icmp slt i32 %11, %14
  br i1 %15, label %16, label %47

16:                                               ; preds = %10
  %17 = load ptr, ptr %5, align 8
  %18 = getelementptr inbounds %struct.Proto, ptr %17, i32 0, i32 16
  %19 = load ptr, ptr %18, align 8
  %20 = load i32, ptr %8, align 4
  %21 = sext i32 %20 to i64
  %22 = getelementptr inbounds %struct.LocVar, ptr %19, i64 %21
  store ptr %22, ptr %9, align 8
  %23 = load i32, ptr %6, align 4
  %24 = load ptr, ptr %9, align 8
  %25 = getelementptr inbounds %struct.LocVar, ptr %24, i32 0, i32 3
  %26 = load i8, ptr %25, align 8
  %27 = zext i8 %26 to i32
  %28 = icmp eq i32 %23, %27
  br i1 %28, label %29, label %43

29:                                               ; preds = %16
  %30 = load i32, ptr %7, align 4
  %31 = load ptr, ptr %9, align 8
  %32 = getelementptr inbounds %struct.LocVar, ptr %31, i32 0, i32 1
  %33 = load i32, ptr %32, align 8
  %34 = icmp sge i32 %30, %33
  br i1 %34, label %35, label %43

35:                                               ; preds = %29
  %36 = load i32, ptr %7, align 4
  %37 = load ptr, ptr %9, align 8
  %38 = getelementptr inbounds %struct.LocVar, ptr %37, i32 0, i32 2
  %39 = load i32, ptr %38, align 4
  %40 = icmp slt i32 %36, %39
  br i1 %40, label %41, label %43

41:                                               ; preds = %35
  %42 = load ptr, ptr %9, align 8
  store ptr %42, ptr %4, align 8
  br label %48

43:                                               ; preds = %35, %29, %16
  br label %44

44:                                               ; preds = %43
  %45 = load i32, ptr %8, align 4
  %46 = add nsw i32 %45, 1
  store i32 %46, ptr %8, align 4
  br label %10, !llvm.loop !5

47:                                               ; preds = %10
  store ptr null, ptr %4, align 8
  br label %48

48:                                               ; preds = %47, %41
  %49 = load ptr, ptr %4, align 8
  ret ptr %49
}

; Function Attrs: mustprogress uwtable
define dso_local noundef ptr @_ZN4Luau7CodeGen16tryFindLocalNameEPK5Protoii(ptr noundef %0, i32 noundef %1, i32 noundef %2) #0 {
  %4 = alloca ptr, align 8
  %5 = alloca ptr, align 8
  %6 = alloca i32, align 4
  %7 = alloca i32, align 4
  %8 = alloca ptr, align 8
  store ptr %0, ptr %5, align 8
  store i32 %1, ptr %6, align 4
  store i32 %2, ptr %7, align 4
  %9 = load ptr, ptr %5, align 8
  %10 = load i32, ptr %6, align 4
  %11 = load i32, ptr %7, align 4
  %12 = call noundef ptr @_ZN4Luau7CodeGenL12tryFindLocalEPK5Protoii(ptr noundef %9, i32 noundef %10, i32 noundef %11)
  store ptr %12, ptr %8, align 8
  %13 = load ptr, ptr %8, align 8
  %14 = icmp ne ptr %13, null
  br i1 %14, label %15, label %26

15:                                               ; preds = %3
  %16 = load ptr, ptr %8, align 8
  %17 = getelementptr inbounds %struct.LocVar, ptr %16, i32 0, i32 0
  %18 = load ptr, ptr %17, align 8
  %19 = icmp ne ptr %18, null
  br i1 %19, label %20, label %26

20:                                               ; preds = %15
  %21 = load ptr, ptr %8, align 8
  %22 = getelementptr inbounds %struct.LocVar, ptr %21, i32 0, i32 0
  %23 = load ptr, ptr %22, align 8
  %24 = getelementptr inbounds %struct.TString, ptr %23, i32 0, i32 7
  %25 = getelementptr inbounds [1 x i8], ptr %24, i64 0, i64 0
  store ptr %25, ptr %4, align 8
  br label %27

26:                                               ; preds = %15, %3
  store ptr null, ptr %4, align 8
  br label %27

27:                                               ; preds = %26, %20
  %28 = load ptr, ptr %4, align 8
  ret ptr %28
}