; Function Attrs: mustprogress nofree norecurse nosync nounwind willreturn memory(read, inaccessiblemem: none) uwtable
define dso_local noundef ptr @_ZN4Luau7CodeGen16tryFindLocalNameEPK5Protoii(ptr nocapture noundef readonly %0, i32 noundef %1, i32 noundef %2) local_unnamed_addr #0 {
  %4 = getelementptr inbounds i8, ptr %0, i64 144
  %5 = load i32, ptr %4, align 8
  %6 = icmp sgt i32 %5, 0
  br i1 %6, label %.lr.ph.i, label %_ZN4Luau7CodeGenL12tryFindLocalEPK5Protoii.exit.thread

.lr.ph.i:                                         ; preds = %3
  %7 = getelementptr inbounds i8, ptr %0, i64 72
  %8 = load ptr, ptr %7, align 8
  %wide.trip.count.i = zext nneg i32 %5 to i64
  br label %9

9:                                                ; preds = %22, %.lr.ph.i
  %indvars.iv.i = phi i64 [ 0, %.lr.ph.i ], [ %indvars.iv.next.i, %22 ]
  %10 = getelementptr inbounds %struct.LocVar, ptr %8, i64 %indvars.iv.i
  %11 = getelementptr inbounds i8, ptr %10, i64 16
  %12 = load i8, ptr %11, align 8
  %13 = zext i8 %12 to i32
  %14 = icmp eq i32 %13, %1
  br i1 %14, label %15, label %22

15:                                               ; preds = %9
  %16 = getelementptr inbounds i8, ptr %10, i64 8
  %17 = load i32, ptr %16, align 8
  %.not.i = icmp sgt i32 %17, %2
  br i1 %.not.i, label %22, label %18

18:                                               ; preds = %15
  %19 = getelementptr inbounds i8, ptr %10, i64 12
  %20 = load i32, ptr %19, align 4
  %21 = icmp sgt i32 %20, %2
  br i1 %21, label %_ZN4Luau7CodeGenL12tryFindLocalEPK5Protoii.exit, label %22

22:                                               ; preds = %18, %15, %9
  %indvars.iv.next.i = add nuw nsw i64 %indvars.iv.i, 1
  %exitcond.not.i = icmp eq i64 %indvars.iv.next.i, %wide.trip.count.i
  br i1 %exitcond.not.i, label %_ZN4Luau7CodeGenL12tryFindLocalEPK5Protoii.exit.thread, label %9, !llvm.loop !5

_ZN4Luau7CodeGenL12tryFindLocalEPK5Protoii.exit:  ; preds = %18
  %23 = load ptr, ptr %10, align 8
  %.not8 = icmp eq ptr %23, null
  %24 = getelementptr inbounds i8, ptr %23, i64 24
  %spec.select = select i1 %.not8, ptr null, ptr %24
  br label %_ZN4Luau7CodeGenL12tryFindLocalEPK5Protoii.exit.thread

_ZN4Luau7CodeGenL12tryFindLocalEPK5Protoii.exit.thread: ; preds = %22, %3, %_ZN4Luau7CodeGenL12tryFindLocalEPK5Protoii.exit
  %.0 = phi ptr [ %spec.select, %_ZN4Luau7CodeGenL12tryFindLocalEPK5Protoii.exit ], [ null, %3 ], [ null, %22 ]
  ret ptr %.0
}